; Function Attrs: nounwind uwtable
define hidden range(i32 0, 57) i32 @Curl_bump_headersize(ptr noundef %0, i64 noundef %1, i1 noundef zeroext %2) local_unnamed_addr #0 {
  %4 = icmp ult i64 %1, 307200
  br i1 %4, label %5, label %23

5:                                                ; preds = %3
  %6 = trunc nuw nsw i64 %1 to i32
  %7 = getelementptr inbounds nuw i8, ptr %0, i64 5144
  %8 = load i32, ptr %7, align 8, !tbaa !210
  %9 = add i32 %8, %6
  store i32 %9, ptr %7, align 8, !tbaa !210
  %10 = getelementptr inbounds nuw i8, ptr %0, i64 292
  %11 = load i32, ptr %10, align 4, !tbaa !211
  %12 = add i32 %11, %6
  store i32 %12, ptr %10, align 4, !tbaa !211
  br i1 %2, label %17, label %13

13:                                               ; preds = %5
  %14 = getelementptr inbounds nuw i8, ptr %0, i64 288
  %15 = load i32, ptr %14, align 8, !tbaa !116
  %16 = add i32 %15, %6
  store i32 %16, ptr %14, align 8, !tbaa !116
  br label %17

17:                                               ; preds = %13, %5
  %18 = icmp ugt i32 %12, 307200
  br i1 %18, label %.thread30, label %20

.thread30:                                        ; preds = %17
  %19 = zext i32 %12 to i64
  br label %28

20:                                               ; preds = %17
  %21 = icmp ugt i32 %9, 6144000
  %22 = zext i32 %9 to i64
  br i1 %21, label %select.unfold, label %.thread

23:                                               ; preds = %3
  %24 = getelementptr inbounds nuw i8, ptr %0, i64 292
  %25 = load i32, ptr %24, align 4, !tbaa !211
  %26 = zext i32 %25 to i64
  %27 = add i64 %1, %26
  br label %select.unfold

select.unfold:                                    ; preds = %20, %23
  %.021 = phi i64 [ %27, %23 ], [ %22, %20 ]
  %.0 = phi i32 [ 307200, %23 ], [ 6144000, %20 ]
  %.not = icmp eq i64 %.021, 0
  br i1 %.not, label %.thread, label %28

28:                                               ; preds = %.thread30, %select.unfold
  %.035 = phi i32 [ 307200, %.thread30 ], [ %.0, %select.unfold ]
  %.02134 = phi i64 [ %19, %.thread30 ], [ %.021, %select.unfold ]
  tail call void (ptr, ptr, ...) @Curl_failf(ptr noundef nonnull %0, ptr noundef nonnull @.str.50, i64 noundef %.02134, i32 noundef %.035) #11
  br label %.thread

.thread:                                          ; preds = %20, %select.unfold, %28
  %.022 = phi i32 [ 56, %28 ], [ 0, %select.unfold ], [ 0, %20 ]
  ret i32 %.022
}